; Function Attrs: mustprogress uwtable
define void @_ZN3gmx22SelectionOptionManager24parseRequestedFromStringERKNSt7__cxx1112basic_stringIcSt11char_traitsIcESaIcEEE(ptr nocapture noundef nonnull readonly align 8 dereferenceable(16) %0, ptr noundef nonnull align 8 dereferenceable(32) %1) local_unnamed_addr #2 align 2 personality ptr @__gxx_personality_v0 {
  %3 = alloca %"class.std::vector.7", align 8
  %4 = getelementptr inbounds i8, ptr %0, i64 8
  %5 = load ptr, ptr %4, align 8
  %6 = load ptr, ptr %5, align 8
  call void @_ZN3gmx19SelectionCollection15parseFromStringERKNSt7__cxx1112basic_stringIcSt11char_traitsIcESaIcEEE(ptr dead_on_unwind nonnull writable sret(%"class.std::vector.7") align 8 %3, ptr noundef nonnull align 8 dereferenceable(8) %6, ptr noundef nonnull align 8 dereferenceable(32) %1)
  %7 = load ptr, ptr %4, align 8
  invoke void @_ZN3gmx22SelectionOptionManager4Impl25placeSelectionsInRequestsERKSt6vectorINS_9SelectionESaIS3_EE(ptr noundef nonnull align 8 dereferenceable(56) %7, ptr noundef nonnull align 8 dereferenceable(24) %3)
          to label %8 unwind label %11

8:                                                ; preds = %2
  %9 = load ptr, ptr %3, align 8
  %.not.i.i.i = icmp eq ptr %9, null
  br i1 %.not.i.i.i, label %_ZNSt6vectorIN3gmx9SelectionESaIS1_EED2Ev.exit, label %10

10:                                               ; preds = %8
  call void @_ZdlPv(ptr noundef nonnull %9) #17
  br label %_ZNSt6vectorIN3gmx9SelectionESaIS1_EED2Ev.exit

_ZNSt6vectorIN3gmx9SelectionESaIS1_EED2Ev.exit:   ; preds = %8, %10
  ret void

11:                                               ; preds = %2
  %12 = landingpad { ptr, i32 }
          cleanup
  %13 = load ptr, ptr %3, align 8
  %.not.i.i.i3 = icmp eq ptr %13, null
  br i1 %.not.i.i.i3, label %_ZNSt6vectorIN3gmx9SelectionESaIS1_EED2Ev.exit4, label %14

14:                                               ; preds = %11
  call void @_ZdlPv(ptr noundef nonnull %13) #17
  br label %_ZNSt6vectorIN3gmx9SelectionESaIS1_EED2Ev.exit4

_ZNSt6vectorIN3gmx9SelectionESaIS1_EED2Ev.exit4:  ; preds = %11, %14
  resume { ptr, i32 } %12
}